; Function Attrs: null_pointer_is_valid sspstrong uwtable
define internal zeroext i1 @_5views_read(ptr noundef readonly captures(none) %0, ptr noundef %1, ptr noundef %2, ptr noundef %3, ptr noundef writeonly captures(none) initializes((0, 8)) %4) #0 {
  %6 = alloca %struct.t_5VW_TimeStamped_Header, align 4
  call void @llvm.lifetime.start.p0(i64 36, ptr nonnull %6) #6
  %7 = getelementptr inbounds nuw i8, ptr %6, i64 16
  %8 = getelementptr inbounds nuw i8, ptr %6, i64 24
  %9 = getelementptr inbounds nuw i8, ptr %6, i64 28
  %10 = getelementptr inbounds nuw i8, ptr %1, i64 232
  %11 = getelementptr inbounds nuw i8, ptr %1, i64 4
  %12 = getelementptr inbounds nuw i8, ptr %1, i64 16
  %13 = getelementptr inbounds nuw i8, ptr %1, i64 24
  %14 = getelementptr inbounds nuw i8, ptr %1, i64 64
  %15 = getelementptr inbounds nuw i8, ptr %1, i64 68
  %16 = getelementptr inbounds nuw i8, ptr %0, i64 144
  %17 = getelementptr inbounds nuw i8, ptr %1, i64 80
  %18 = getelementptr inbounds nuw i8, ptr %6, i64 12
  br label %19

19:                                               ; preds = %39, %5
  %20 = load ptr, ptr %0, align 8
  %21 = call i64 @file_tell(ptr noundef %20)
  store i64 %21, ptr %4, align 8
  %22 = load ptr, ptr %0, align 8
  %23 = call zeroext i1 @wtap_read_bytes_or_eof(ptr noundef %22, ptr noundef nonnull %6, i32 noundef 36, ptr noundef %2, ptr noundef %3)
  br i1 %23, label %24, label %_5views_read_header.exit

24:                                               ; preds = %19
  %25 = load i32, ptr %6, align 4
  %.not.i = icmp eq i32 %25, 859041518
  br i1 %.not.i, label %28, label %26

26:                                               ; preds = %24
  store i32 -13, ptr %2, align 4
  %27 = call noalias ptr (ptr, ptr, ...) @wmem_strdup_printf(ptr noundef null, ptr noundef nonnull @.str.5, i32 noundef %25)
  store ptr %27, ptr %3, align 8
  br label %_5views_read_header.exit

28:                                               ; preds = %24
  store i32 0, ptr %1, align 8
  %29 = call ptr @wtap_block_create(i32 noundef 5)
  store ptr %29, ptr %10, align 8
  store i32 1, ptr %11, align 4
  %30 = load i32, ptr %8, align 4
  %31 = zext i32 %30 to i64
  store i64 %31, ptr %12, align 8
  %32 = load i32, ptr %9, align 4
  store i32 %32, ptr %13, align 8
  %33 = load i32, ptr %7, align 4
  store i32 %33, ptr %14, align 8
  store i32 %33, ptr %15, align 4
  %34 = load i32, ptr %16, align 8
  %cond.i = icmp eq i32 %34, 1
  br i1 %cond.i, label %35, label %36

35:                                               ; preds = %28
  store i32 0, ptr %17, align 8
  br label %36

36:                                               ; preds = %28, %35
  %37 = load i32, ptr %18, align 4
  %38 = icmp eq i32 %37, 0
  br i1 %38, label %42, label %39

39:                                               ; preds = %36
  %40 = load ptr, ptr %0, align 8
  %41 = call zeroext i1 @wtap_read_bytes(ptr noundef %40, ptr noundef null, i32 noundef %33, ptr noundef %2, ptr noundef %3)
  br i1 %41, label %19, label %_5views_read_header.exit

42:                                               ; preds = %36
  %43 = icmp ugt i32 %33, 262144
  br i1 %43, label %44, label %47

44:                                               ; preds = %42
  store i32 -13, ptr %2, align 4
  %45 = load i32, ptr %14, align 8
  %46 = call noalias ptr (ptr, ptr, ...) @wmem_strdup_printf(ptr noundef null, ptr noundef nonnull @.str.4, i32 noundef %45, i32 noundef 262144)
  store ptr %46, ptr %3, align 8
  br label %_5views_read_header.exit

47:                                               ; preds = %42
  %48 = load ptr, ptr %0, align 8
  %49 = getelementptr inbounds nuw i8, ptr %1, i64 280
  %50 = call zeroext i1 @wtap_read_bytes_buffer(ptr noundef %48, ptr noundef nonnull %49, i32 noundef %33, ptr noundef %2, ptr noundef %3)
  br label %_5views_read_header.exit

_5views_read_header.exit:                         ; preds = %19, %39, %26, %47, %44
  %.0 = phi i1 [ false, %44 ], [ %50, %47 ], [ false, %26 ], [ false, %39 ], [ false, %19 ]
  call void @llvm.lifetime.end.p0(i64 36, ptr nonnull %6) #6
  ret i1 %.0
}